; Function Attrs: nofree norecurse nosync nounwind memory(argmem: readwrite) uwtable
define noundef i32 @ossl_blake2b_init(ptr noundef captures(none) initializes((0, 240)) %0, ptr noundef readonly captures(none) %1) local_unnamed_addr #4 {
  %3 = getelementptr i8, ptr %0, i64 64
  tail call void @llvm.memset.p0.i64(ptr noundef nonnull align 8 dereferenceable(176) %3, i8 0, i64 176, i1 false)
  tail call void @llvm.memcpy.p0.p0.i64(ptr noundef nonnull align 8 dereferenceable(64) %0, ptr noundef nonnull align 16 dereferenceable(64) @blake2b_IV, i64 64, i1 false), !tbaa !10
  %4 = load i8, ptr %1, align 1, !tbaa !3
  %5 = zext i8 %4 to i64
  %6 = getelementptr inbounds nuw i8, ptr %0, i64 232
  store i64 %5, ptr %6, align 8, !tbaa !12
  br label %7

7:                                                ; preds = %7, %2
  %.09.i = phi i64 [ 0, %2 ], [ %13, %7 ]
  %8 = shl nuw nsw i64 %.09.i, 3
  %9 = getelementptr inbounds nuw i8, ptr %1, i64 %8
  %.val.i = load i64, ptr %9, align 1
  %10 = getelementptr inbounds nuw [8 x i64], ptr %0, i64 0, i64 %.09.i
  %11 = load i64, ptr %10, align 8, !tbaa !10
  %12 = xor i64 %11, %.val.i
  store i64 %12, ptr %10, align 8, !tbaa !10
  %13 = add nuw nsw i64 %.09.i, 1
  %exitcond.not.i = icmp eq i64 %13, 8
  br i1 %exitcond.not.i, label %blake2b_init_param.exit, label %7, !llvm.loop !14

blake2b_init_param.exit:                          ; preds = %7
  ret i32 1
}